Certificate:
    Data:
        Version: 3 (0x2)
        Serial Number:
            06:20:25:93:b0:a0:84:f0:a3:ac:a7:fa:1e:c3:3f:e9
        Signature Algorithm: sha256WithRSAEncryption
        Issuer: CN=1234
        Validity
            Not Before: Jan 14 22:01:37 2022 GMT
            Not After : Apr 18 22:01:37 2024 GMT
        Subject: CN=client
        Subject Public Key Info:
            Public Key Algorithm: rsaEncryption
                RSA Public-Key: (2048 bit)
                Modulus:
                    00:b2:b3:e8:09:de:ef:91:26:5a:b2:95:cc:98:9e:
                    16:12:55:e6:10:75:c2:a1:bd:77:f7:d0:74:a1:1d:
                    cc:bb:5a:37:0b:c6:3c:cb:3f:88:d7:01:c0:42:75:
                    35:29:3c:34:78:42:dc:43:dc:f3:1d:fd:ec:c4:4a:
                    67:0d:76:78:dc:4a:77:8c:15:7a:76:f9:4d:84:a4:
                    e1:a9:dd:58:41:62:b7:dd:e9:1e:3d:7a:e4:29:37:
                    6e:30:97:65:0b:ee:96:6d:ac:c8:c0:30:ba:26:58:
                    2d:95:d3:32:3b:8b:11:53:88:b6:4e:97:bd:fa:cc:
                    c7:f6:d5:ca:2c:b2:59:9f:53:43:19:93:ff:95:73:
                    d7:8e:3d:19:da:bb:7d:97:ec:32:9a:53:ca:e7:d1:
                    48:48:14:5e:77:73:54:17:cb:0d:6f:32:62:a9:ae:
                    91:8b:42:17:54:26:70:fb:49:32:d3:37:5e:2d:1a:
                    66:90:1f:08:b1:0f:2b:68:94:d8:ea:b7:3e:55:e4:
                    31:b1:ad:3d:53:96:6a:f5:18:ca:1d:e3:22:05:de:
                    ae:bb:82:1d:1d:9e:99:0f:56:3b:21:04:4b:d8:b4:
                    4e:8a:49:19:3f:fc:53:b8:93:b8:c3:89:23:2c:52:
                    5f:25:2a:44:fe:0d:d5:12:ed:f3:6e:0f:0f:03:48:
                    b7:e7
                Exponent: 65537 (0x10001)
        X509v3 extensions:
            X509v3 Basic Constraints: 
                CA:FALSE
            X509v3 Subject Key Identifier: 
                ED:95:8C:75:65:C7:84:36:11:55:4A:55:BA:56:CB:E0:AA:E3:B8:F0
            X509v3 Authority Key Identifier: 
                keyid:2E:15:E2:74:71:FB:6B:7D:5E:43:2E:47:A9:29:62:07:2F:B2:18:9A
                DirName:/CN=1234
                serial:4E:30:6A:BE:3E:0E:F0:E9:71:02:E6:95:19:6C:55:8F:E9:B4:45:15

            X509v3 Extended Key Usage: 
                TLS Web Client Authentication
            X509v3 Key Usage: 
                Digital Signature
    Signature Algorithm: sha256WithRSAEncryption
         4c:a4:11:f8:20:2e:8b:99:84:f2:11:b4:2d:f9:89:e6:cb:24:
         f2:a8:e1:6a:cd:0e:9e:52:07:8d:0a:c6:38:f0:35:02:f6:67:
         62:35:0a:4b:c8:2c:52:19:6e:c4:0f:4d:d1:db:0e:3b:f1:2b:
         d4:c7:8f:0e:0b:b7:8c:b3:f8:19:11:4b:69:80:a9:eb:75:ae:
         ed:ce:af:14:3a:32:f2:b8:3d:f9:e6:5c:49:57:b9:cc:b1:dc:
         8b:88:61:d0:e4:c4:92:8f:f3:f0:bc:01:dd:f0:be:95:8a:c4:
         34:09:c5:88:46:90:90:1e:47:73:d9:83:f7:6a:9d:b4:82:f2:
         13:67:c1:bd:bb:12:aa:d5:83:3e:d5:89:7b:40:32:fb:6e:4a:
         7c:17:bd:f2:67:2e:23:00:b4:30:0e:f7:d5:fb:46:7f:fb:c5:
         c9:60:36:35:61:b1:6c:fc:66:49:b7:d5:0c:41:15:10:87:ab:
         80:77:aa:2d:91:82:d4:be:f8:a5:d6:72:6c:0c:03:f2:b1:06:
         4f:e7:c6:7d:12:ef:53:e0:4e:45:ef:95:59:66:f0:63:b4:57:
         b1:cc:8b:77:c9:3d:f4:e7:5b:87:34:a6:80:c3:da:97:b4:ab:
         74:ab:26:1c:c5:03:92:71:2f:ad:61:ba:b3:69:49:af:22:8f:
         06:cf:bb:33
-----BEGIN CERTIFICATE-----
MIIDRjCCAi6gAwIBAgIQBiAlk7CghPCjrKf6HsM/6TANBgkqhkiG9w0BAQsFADAP
MQ0wCwYDVQQDDAQxMjM0MB4XDTIyMDExNDIyMDEzN1oXDTI0MDQxODIyMDEzN1ow
ETEPMA0GA1UEAwwGY2xpZW50MIIBIjANBgkqhkiG9w0BAQEFAAOCAQ8AMIIBCgKC
AQEAsrPoCd7vkSZaspXMmJ4WElXmEHXCob1399B0oR3Mu1o3C8Y8yz+I1wHAQnU1
KTw0eELcQ9zzHf3sxEpnDXZ43Ep3jBV6dvlNhKThqd1YQWK33ekePXrkKTduMJdl
C+6WbazIwDC6JlgtldMyO4sRU4i2Tpe9+szH9tXKLLJZn1NDGZP/lXPXjj0Z2rt9
l+wymlPK59FISBRed3NUF8sNbzJiqa6Ri0IXVCZw+0ky0zdeLRpmkB8IsQ8raJTY
6rc+VeQxsa09U5Zq9RjKHeMiBd6uu4IdHZ6ZD1Y7IQRL2LROikkZP/xTuJO4w4kj
LFJfJSpE/g3VEu3zbg8PA0i35wIDAQABo4GbMIGYMAkGA1UdEwQCMAAwHQYDVR0O
BBYEFO2VjHVlx4Q2EVVKVbpWy+Cq47jwMEoGA1UdIwRDMEGAFC4V4nRx+2t9XkMu
R6kpYgcvshiaoROkETAPMQ0wCwYDVQQDDAQxMjM0ghROMGq+Pg7w6XEC5pUZbFWP
6bRFFTATBgNVHSUEDDAKBggrBgEFBQcDAjALBgNVHQ8EBAMCB4AwDQYJKoZIhvcN
AQELBQADggEBAEykEfggLouZhPIRtC35iebLJPKo4WrNDp5SB40KxjjwNQL2Z2I1
CkvILFIZbsQPTdHbDjvxK9THjw4Lt4yz+BkRS2mAqet1ru3OrxQ6MvK4PfnmXElX
ucyx3IuIYdDkxJKP8/C8Ad3wvpWKxDQJxYhGkJAeR3PZg/dqnbSC8hNnwb27EqrV
gz7ViXtAMvtuSnwXvfJnLiMAtDAO99X7Rn/7xclgNjVhsWz8Zkm31QxBFRCHq4B3
qi2RgtS++KXWcmwMA/KxBk/nxn0S71PgTkXvlVlm8GO0V7HMi3fJPfTnW4c0poDD
2pe0q3SrJhzFA5JxL61hurNpSa8ijwbPuzM=
-----END CERTIFICATE-----
