Certificate:
    Data:
        Version: 3 (0x2)
        Serial Number:
            3a:e2:ce:6b:ec:1a:96:92:9f:5f:11:f1:a6:f2:95:20
        Signature Algorithm: sha256WithRSAEncryption
        Issuer: CN=1234
        Validity
            Not Before: Jan  1 13:21:41 2022 GMT
            Not After : Apr  5 13:21:41 2024 GMT
        Subject: CN=entr1
        Subject Public Key Info:
            Public Key Algorithm: rsaEncryption
                RSA Public-Key: (2048 bit)
                Modulus:
                    00:c7:8d:e6:01:61:4d:4c:ad:97:da:18:c2:7f:e7:
                    6a:21:23:20:49:25:42:57:88:d7:9c:ea:a2:5b:db:
                    57:2a:e3:41:95:e0:23:8d:89:9c:8a:bf:58:bb:80:
                    ed:13:a8:b2:3b:6d:e8:b6:f9:bb:23:0e:22:b1:59:
                    f6:eb:e6:2e:a2:a7:06:3f:a5:57:c6:7c:0b:e5:e2:
                    99:73:30:ce:e5:49:eb:10:98:26:75:5c:74:48:19:
                    d8:20:de:e5:ee:8c:b2:10:ec:dd:a8:cb:66:0a:3e:
                    3c:a9:de:dd:a4:fd:65:cc:2c:d3:30:0e:09:e8:1c:
                    ee:96:9b:06:63:ef:82:45:29:2c:b0:f0:99:3a:26:
                    e7:55:0a:41:f4:29:8e:1e:5d:3d:a2:b9:63:79:a2:
                    c2:e3:ac:31:bd:56:fb:81:68:8e:54:19:21:36:ac:
                    60:5d:3c:92:1b:8f:78:6d:90:6c:0b:84:47:05:69:
                    b6:56:21:b9:3a:c9:4a:70:ce:d2:8b:32:1f:8b:c1:
                    03:34:f4:e4:b9:0a:84:26:e5:3e:d4:7f:47:b7:35:
                    52:f4:48:9f:17:21:a1:24:1a:79:97:34:7d:77:5f:
                    6c:4a:78:08:76:5b:40:27:f7:e9:91:c5:b1:dd:32:
                    36:12:9f:a6:14:0a:68:7e:52:1b:b1:bc:e4:86:c1:
                    2f:f7
                Exponent: 65537 (0x10001)
        X509v3 extensions:
            X509v3 Basic Constraints: 
                CA:FALSE
            X509v3 Subject Key Identifier: 
                43:31:0A:19:2A:CF:57:26:CB:C2:07:68:1A:E2:E1:17:2B:6B:5A:0E
            X509v3 Authority Key Identifier: 
                keyid:2E:15:E2:74:71:FB:6B:7D:5E:43:2E:47:A9:29:62:07:2F:B2:18:9A
                DirName:/CN=1234
                serial:4E:30:6A:BE:3E:0E:F0:E9:71:02:E6:95:19:6C:55:8F:E9:B4:45:15

            X509v3 Extended Key Usage: 
                TLS Web Server Authentication
            X509v3 Key Usage: 
                Digital Signature, Key Encipherment
            X509v3 Subject Alternative Name: 
                DNS:entr1
    Signature Algorithm: sha256WithRSAEncryption
         0e:81:f2:f4:68:c5:06:96:0f:d6:91:c9:59:ca:30:ea:ec:33:
         f5:07:81:a6:0c:2d:0d:a7:72:66:6f:6f:f2:2c:13:de:05:3f:
         93:df:e5:70:2c:4f:14:e8:50:7d:9a:3d:ce:f3:69:69:9b:6f:
         92:1a:34:0d:8d:e0:52:6c:1f:4e:0e:39:16:13:ea:17:85:64:
         2d:44:5b:cf:10:38:c8:05:6d:f1:56:23:b5:8a:a6:97:ca:20:
         74:cd:12:24:28:a0:00:9d:02:d6:9c:4a:fb:e3:43:c2:10:2d:
         68:6a:be:1e:45:33:97:8f:61:2e:39:76:b0:e7:37:1a:7d:e7:
         de:bf:27:5d:13:39:52:04:2c:e8:c5:43:2d:39:8c:5c:41:74:
         22:55:84:88:85:6c:57:7e:c0:04:7d:31:80:40:23:28:89:ac:
         1b:89:8f:9a:fc:65:15:0a:9d:dd:de:40:f7:66:a3:93:d3:96:
         00:39:36:3c:07:58:4e:41:da:4f:9f:d2:ed:ff:10:98:e0:44:
         e7:71:9e:96:6e:3e:67:e6:73:fa:da:8e:ad:60:c1:e5:60:e4:
         13:33:b8:b6:e7:56:be:c1:09:5f:a9:66:3a:c4:77:14:b4:2d:
         ff:62:e8:fa:3d:a6:1d:5a:9c:17:d6:eb:dc:91:49:e8:fb:e5:
         32:5b:58:de
-----BEGIN CERTIFICATE-----
MIIDVzCCAj+gAwIBAgIQOuLOa+walpKfXxHxpvKVIDANBgkqhkiG9w0BAQsFADAP
MQ0wCwYDVQQDDAQxMjM0MB4XDTIyMDEwMTEzMjE0MVoXDTI0MDQwNTEzMjE0MVow
EDEOMAwGA1UEAwwFZW50cjEwggEiMA0GCSqGSIb3DQEBAQUAA4IBDwAwggEKAoIB
AQDHjeYBYU1MrZfaGMJ/52ohIyBJJUJXiNec6qJb21cq40GV4CONiZyKv1i7gO0T
qLI7bei2+bsjDiKxWfbr5i6ipwY/pVfGfAvl4plzMM7lSesQmCZ1XHRIGdgg3uXu
jLIQ7N2oy2YKPjyp3t2k/WXMLNMwDgnoHO6WmwZj74JFKSyw8Jk6JudVCkH0KY4e
XT2iuWN5osLjrDG9VvuBaI5UGSE2rGBdPJIbj3htkGwLhEcFabZWIbk6yUpwztKL
Mh+LwQM09OS5CoQm5T7Uf0e3NVL0SJ8XIaEkGnmXNH13X2xKeAh2W0An9+mRxbHd
MjYSn6YUCmh+UhuxvOSGwS/3AgMBAAGjga0wgaowCQYDVR0TBAIwADAdBgNVHQ4E
FgQUQzEKGSrPVybLwgdoGuLhFytrWg4wSgYDVR0jBEMwQYAULhXidHH7a31eQy5H
qSliBy+yGJqhE6QRMA8xDTALBgNVBAMMBDEyMzSCFE4war4+DvDpcQLmlRlsVY/p
tEUVMBMGA1UdJQQMMAoGCCsGAQUFBwMBMAsGA1UdDwQEAwIFoDAQBgNVHREECTAH
ggVlbnRyMTANBgkqhkiG9w0BAQsFAAOCAQEADoHy9GjFBpYP1pHJWcow6uwz9QeB
pgwtDadyZm9v8iwT3gU/k9/lcCxPFOhQfZo9zvNpaZtvkho0DY3gUmwfTg45FhPq
F4VkLURbzxA4yAVt8VYjtYqml8ogdM0SJCigAJ0C1pxK++NDwhAtaGq+HkUzl49h
Ljl2sOc3Gn3n3r8nXRM5UgQs6MVDLTmMXEF0IlWEiIVsV37ABH0xgEAjKImsG4mP
mvxlFQqd3d5A92ajk9OWADk2PAdYTkHaT5/S7f8QmOBE53Gelm4+Z+Zz+tqOrWDB
5WDkEzO4tudWvsEJX6lmOsR3FLQt/2Lo+j2mHVqcF9br3JFJ6PvlMltY3g==
-----END CERTIFICATE-----
